; Function Attrs: mustprogress uwtable
define dso_local void @_ZN25cmCPackInnoSetupGeneratorC2Ev(ptr noundef nonnull align 8 dereferenceable(656) %0) unnamed_addr #3 align 2 personality ptr @__gxx_personality_v0 {
  tail call void @_ZN16cmCPackGeneratorC2Ev(ptr noundef nonnull align 8 dereferenceable(360) %0)
  store ptr getelementptr inbounds ({ [31 x ptr] }, ptr @_ZTV25cmCPackInnoSetupGenerator, i64 0, i32 0, i64 2), ptr %0, align 8
  %2 = getelementptr inbounds i8, ptr %0, i64 360
  tail call void @llvm.memset.p0.i64(ptr noundef nonnull align 8 dereferenceable(24) %2, i8 0, i64 24, i1 false)
  %3 = getelementptr inbounds i8, ptr %0, i64 392
  store i32 0, ptr %3, align 8
  %4 = getelementptr inbounds i8, ptr %0, i64 400
  store ptr null, ptr %4, align 8
  %5 = getelementptr inbounds i8, ptr %0, i64 408
  store ptr %3, ptr %5, align 8
  %6 = getelementptr inbounds i8, ptr %0, i64 416
  store ptr %3, ptr %6, align 8
  %7 = getelementptr inbounds i8, ptr %0, i64 424
  store i64 0, ptr %7, align 8
  %8 = getelementptr inbounds i8, ptr %0, i64 440
  tail call void @llvm.memset.p0.i64(ptr noundef nonnull align 8 dereferenceable(216) %8, i8 0, i64 216, i1 false)
  ret void
}